target datalayout = "e-m:e-p270:32:32-p271:32:32-p272:64:64-i64:64-i128:128-f80:128-n8:16:32:64-S128"
target triple = "x86_64-pc-linux-gnu"

%struct.PROV_ECDSA_CTX = type { ptr, ptr, ptr, i32, i8, [256 x i8], i64, [50 x i8], ptr, ptr, i64, ptr, i64, ptr, ptr, i32 }
%struct.ossl_param_st = type { ptr, i32, ptr, i64, i64 }

@.str.12 = private unnamed_addr constant [12 x i8] c"digest-size\00", align 1
@.str.13 = private unnamed_addr constant [7 x i8] c"digest\00", align 1
@.str.14 = private unnamed_addr constant [11 x i8] c"nonce-type\00", align 1
@.str.16 = private unnamed_addr constant [11 x i8] c"properties\00", align 1
@.str.17 = private unnamed_addr constant [14 x i8] c"ECDSA Set Ctx\00", align 1

; Function Attrs: nounwind uwtable
define internal i32 @ecdsa_common_set_ctx_params(ptr noundef %0, ptr noundef %1) #0 {
  %3 = alloca i32, align 4
  %4 = alloca ptr, align 8
  %5 = alloca ptr, align 8
  %6 = alloca ptr, align 8
  %7 = alloca ptr, align 8
  %8 = alloca i32, align 4
  store ptr %0, ptr %4, align 8, !tbaa !3
  store ptr %1, ptr %5, align 8, !tbaa !19
  call void @llvm.lifetime.start.p0(i64 8, ptr %6) #7
  %9 = load ptr, ptr %4, align 8, !tbaa !3
  store ptr %9, ptr %6, align 8, !tbaa !3
  call void @llvm.lifetime.start.p0(i64 8, ptr %7) #7
  %10 = load ptr, ptr %5, align 8, !tbaa !19
  %11 = call ptr @OSSL_PARAM_locate_const(ptr noundef %10, ptr noundef @.str.14)
  store ptr %11, ptr %7, align 8, !tbaa !19
  %12 = load ptr, ptr %7, align 8, !tbaa !19
  %13 = icmp ne ptr %12, null
  br i1 %13, label %14, label %21

14:                                               ; preds = %2
  %15 = load ptr, ptr %7, align 8, !tbaa !19
  %16 = load ptr, ptr %6, align 8, !tbaa !3
  %17 = getelementptr inbounds nuw %struct.PROV_ECDSA_CTX, ptr %16, i32 0, i32 15
  %18 = call i32 @OSSL_PARAM_get_uint(ptr noundef %15, ptr noundef %17)
  %19 = icmp ne i32 %18, 0
  br i1 %19, label %21, label %20

20:                                               ; preds = %14
  store i32 0, ptr %3, align 4
  store i32 1, ptr %8, align 4
  br label %22

21:                                               ; preds = %14, %2
  store i32 1, ptr %3, align 4
  store i32 1, ptr %8, align 4
  br label %22

22:                                               ; preds = %21, %20
  call void @llvm.lifetime.end.p0(i64 8, ptr %7) #7
  call void @llvm.lifetime.end.p0(i64 8, ptr %6) #7
  %23 = load i32, ptr %3, align 4
  ret i32 %23
}

; Function Attrs: inlinehint nounwind uwtable
define internal i32 @ossl_param_is_empty(ptr noundef %0) #5 {
  %2 = alloca ptr, align 8
  store ptr %0, ptr %2, align 8, !tbaa !19
  %3 = load ptr, ptr %2, align 8, !tbaa !19
  %4 = icmp eq ptr %3, null
  br i1 %4, label %10, label %5

5:                                                ; preds = %1
  %6 = load ptr, ptr %2, align 8, !tbaa !19
  %7 = getelementptr inbounds nuw %struct.ossl_param_st, ptr %6, i32 0, i32 0
  %8 = load ptr, ptr %7, align 8, !tbaa !44
  %9 = icmp eq ptr %8, null
  br label %10

10:                                               ; preds = %5, %1
  %11 = phi i1 [ true, %1 ], [ %9, %5 ]
  %12 = zext i1 %11 to i32
  ret i32 %12
}

; Function Attrs: nounwind uwtable
define internal i32 @ecdsa_set_ctx_params(ptr noundef %0, ptr noundef %1) #0 {
  %3 = alloca i32, align 4
  %4 = alloca ptr, align 8
  %5 = alloca ptr, align 8
  %6 = alloca ptr, align 8
  %7 = alloca ptr, align 8
  %8 = alloca i64, align 8
  %9 = alloca i32, align 4
  %10 = alloca i32, align 4
  %11 = alloca [50 x i8], align 16
  %12 = alloca ptr, align 8
  %13 = alloca [256 x i8], align 16
  %14 = alloca ptr, align 8
  %15 = alloca ptr, align 8
  store ptr %0, ptr %4, align 8, !tbaa !3
  store ptr %1, ptr %5, align 8, !tbaa !19
  call void @llvm.lifetime.start.p0(i64 8, ptr %6) #7
  %16 = load ptr, ptr %4, align 8, !tbaa !3
  store ptr %16, ptr %6, align 8, !tbaa !3
  call void @llvm.lifetime.start.p0(i64 8, ptr %7) #7
  call void @llvm.lifetime.start.p0(i64 8, ptr %8) #7
  store i64 0, ptr %8, align 8, !tbaa !23
  call void @llvm.lifetime.start.p0(i64 4, ptr %9) #7
  %17 = load ptr, ptr %6, align 8, !tbaa !3
  %18 = icmp eq ptr %17, null
  br i1 %18, label %19, label %20

19:                                               ; preds = %2
  store i32 0, ptr %3, align 4
  store i32 1, ptr %10, align 4
  br label %94

20:                                               ; preds = %2
  %21 = load ptr, ptr %5, align 8, !tbaa !19
  %22 = call i32 @ossl_param_is_empty(ptr noundef %21)
  %23 = icmp ne i32 %22, 0
  br i1 %23, label %24, label %25

24:                                               ; preds = %20
  store i32 1, ptr %3, align 4
  store i32 1, ptr %10, align 4
  br label %94

25:                                               ; preds = %20
  %26 = load ptr, ptr %6, align 8, !tbaa !3
  %27 = load ptr, ptr %5, align 8, !tbaa !19
  %28 = call i32 @ecdsa_common_set_ctx_params(ptr noundef %26, ptr noundef %27)
  store i32 %28, ptr %9, align 4, !tbaa !26
  %29 = icmp sle i32 %28, 0
  br i1 %29, label %30, label %32

30:                                               ; preds = %25
  %31 = load i32, ptr %9, align 4, !tbaa !26
  store i32 %31, ptr %3, align 4
  store i32 1, ptr %10, align 4
  br label %94

32:                                               ; preds = %25
  %33 = load ptr, ptr %5, align 8, !tbaa !19
  %34 = call ptr @OSSL_PARAM_locate_const(ptr noundef %33, ptr noundef @.str.13)
  store ptr %34, ptr %7, align 8, !tbaa !19
  %35 = load ptr, ptr %7, align 8, !tbaa !19
  %36 = icmp ne ptr %35, null
  br i1 %36, label %37, label %65

37:                                               ; preds = %32
  call void @llvm.lifetime.start.p0(i64 50, ptr %11) #7
  call void @llvm.memset.p0.i64(ptr align 16 %11, i8 0, i64 50, i1 false)
  call void @llvm.lifetime.start.p0(i64 8, ptr %12) #7
  %38 = getelementptr inbounds [50 x i8], ptr %11, i64 0, i64 0
  store ptr %38, ptr %12, align 8, !tbaa !7
  call void @llvm.lifetime.start.p0(i64 256, ptr %13) #7
  call void @llvm.memset.p0.i64(ptr align 16 %13, i8 0, i64 256, i1 false)
  call void @llvm.lifetime.start.p0(i64 8, ptr %14) #7
  %39 = getelementptr inbounds [256 x i8], ptr %13, i64 0, i64 0
  store ptr %39, ptr %14, align 8, !tbaa !7
  call void @llvm.lifetime.start.p0(i64 8, ptr %15) #7
  %40 = load ptr, ptr %5, align 8, !tbaa !19
  %41 = call ptr @OSSL_PARAM_locate_const(ptr noundef %40, ptr noundef @.str.16)
  store ptr %41, ptr %15, align 8, !tbaa !19
  %42 = load ptr, ptr %7, align 8, !tbaa !19
  %43 = call i32 @OSSL_PARAM_get_utf8_string(ptr noundef %42, ptr noundef %12, i64 noundef 50)
  %44 = icmp ne i32 %43, 0
  br i1 %44, label %46, label %45

45:                                               ; preds = %37
  store i32 0, ptr %3, align 4
  store i32 1, ptr %10, align 4
  br label %62

46:                                               ; preds = %37
  %47 = load ptr, ptr %15, align 8, !tbaa !19
  %48 = icmp ne ptr %47, null
  br i1 %48, label %49, label %54

49:                                               ; preds = %46
  %50 = load ptr, ptr %15, align 8, !tbaa !19
  %51 = call i32 @OSSL_PARAM_get_utf8_string(ptr noundef %50, ptr noundef %14, i64 noundef 256)
  %52 = icmp ne i32 %51, 0
  br i1 %52, label %54, label %53

53:                                               ; preds = %49
  store i32 0, ptr %3, align 4
  store i32 1, ptr %10, align 4
  br label %62

54:                                               ; preds = %49, %46
  %55 = load ptr, ptr %6, align 8, !tbaa !3
  %56 = getelementptr inbounds [50 x i8], ptr %11, i64 0, i64 0
  %57 = getelementptr inbounds [256 x i8], ptr %13, i64 0, i64 0
  %58 = call i32 @ecdsa_setup_md(ptr noundef %55, ptr noundef %56, ptr noundef %57, ptr noundef @.str.17)
  %59 = icmp ne i32 %58, 0
  br i1 %59, label %61, label %60

60:                                               ; preds = %54
  store i32 0, ptr %3, align 4
  store i32 1, ptr %10, align 4
  br label %62

61:                                               ; preds = %54
  store i32 0, ptr %10, align 4
  br label %62

62:                                               ; preds = %61, %60, %53, %45
  call void @llvm.lifetime.end.p0(i64 8, ptr %15) #7
  call void @llvm.lifetime.end.p0(i64 8, ptr %14) #7
  call void @llvm.lifetime.end.p0(i64 256, ptr %13) #7
  call void @llvm.lifetime.end.p0(i64 8, ptr %12) #7
  call void @llvm.lifetime.end.p0(i64 50, ptr %11) #7
  %63 = load i32, ptr %10, align 4
  switch i32 %63, label %94 [
    i32 0, label %64
  ]

64:                                               ; preds = %62
  br label %65

65:                                               ; preds = %64, %32
  %66 = load ptr, ptr %5, align 8, !tbaa !19
  %67 = call ptr @OSSL_PARAM_locate_const(ptr noundef %66, ptr noundef @.str.12)
  store ptr %67, ptr %7, align 8, !tbaa !19
  %68 = load ptr, ptr %7, align 8, !tbaa !19
  %69 = icmp ne ptr %68, null
  br i1 %69, label %70, label %93

70:                                               ; preds = %65
  %71 = load ptr, ptr %7, align 8, !tbaa !19
  %72 = call i32 @OSSL_PARAM_get_size_t(ptr noundef %71, ptr noundef %8)
  %73 = icmp ne i32 %72, 0
  br i1 %73, label %74, label %88

74:                                               ; preds = %70
  %75 = load ptr, ptr %6, align 8, !tbaa !3
  %76 = getelementptr inbounds nuw %struct.PROV_ECDSA_CTX, ptr %75, i32 0, i32 4
  %77 = load i8, ptr %76, align 4
  %78 = lshr i8 %77, 1
  %79 = and i8 %78, 1
  %80 = zext i8 %79 to i32
  %81 = icmp ne i32 %80, 0
  br i1 %81, label %89, label %82

82:                                               ; preds = %74
  %83 = load i64, ptr %8, align 8, !tbaa !23
  %84 = load ptr, ptr %6, align 8, !tbaa !3
  %85 = getelementptr inbounds nuw %struct.PROV_ECDSA_CTX, ptr %84, i32 0, i32 10
  %86 = load i64, ptr %85, align 8, !tbaa !40
  %87 = icmp ne i64 %83, %86
  br i1 %87, label %88, label %89

88:                                               ; preds = %82, %70
  store i32 0, ptr %3, align 4
  store i32 1, ptr %10, align 4
  br label %94

89:                                               ; preds = %82, %74
  %90 = load i64, ptr %8, align 8, !tbaa !23
  %91 = load ptr, ptr %6, align 8, !tbaa !3
  %92 = getelementptr inbounds nuw %struct.PROV_ECDSA_CTX, ptr %91, i32 0, i32 10
  store i64 %90, ptr %92, align 8, !tbaa !40
  br label %93

93:                                               ; preds = %89, %65
  store i32 1, ptr %3, align 4
  store i32 1, ptr %10, align 4
  br label %94

94:                                               ; preds = %93, %88, %62, %30, %24, %19
  call void @llvm.lifetime.end.p0(i64 4, ptr %9) #7
  call void @llvm.lifetime.end.p0(i64 8, ptr %8) #7
  call void @llvm.lifetime.end.p0(i64 8, ptr %7) #7
  call void @llvm.lifetime.end.p0(i64 8, ptr %6) #7
  %95 = load i32, ptr %3, align 4
  ret i32 %95
}