; Function Attrs: nounwind uwtable
define internal range(i32 0, 2) i32 @ecdsa_set_ctx_params(ptr noundef %0, ptr noundef %1) #0 {
  %3 = alloca i64, align 8
  %4 = alloca [50 x i8], align 16
  %5 = alloca ptr, align 8
  %6 = alloca [256 x i8], align 16
  %7 = alloca ptr, align 8
  call void @llvm.lifetime.start.p0(i64 8, ptr nonnull %3) #8
  store i64 0, ptr %3, align 8, !tbaa !20
  %8 = icmp eq ptr %0, null
  br i1 %8, label %ossl_param_is_empty.exit.thread, label %9

9:                                                ; preds = %2
  %10 = icmp eq ptr %1, null
  br i1 %10, label %ossl_param_is_empty.exit.thread, label %ossl_param_is_empty.exit

ossl_param_is_empty.exit:                         ; preds = %9
  %11 = load ptr, ptr %1, align 8, !tbaa !40
  %.not = icmp eq ptr %11, null
  br i1 %.not, label %ossl_param_is_empty.exit.thread, label %12

12:                                               ; preds = %ossl_param_is_empty.exit
  %13 = tail call ptr @OSSL_PARAM_locate_const(ptr noundef nonnull %1, ptr noundef nonnull @.str.14) #8
  %.not.i = icmp eq ptr %13, null
  br i1 %.not.i, label %ecdsa_common_set_ctx_params.exit, label %14

14:                                               ; preds = %12
  %15 = getelementptr inbounds nuw i8, ptr %0, i64 408
  %16 = tail call i32 @OSSL_PARAM_get_uint(ptr noundef nonnull %13, ptr noundef nonnull %15) #8
  %.not6.i = icmp eq i32 %16, 0
  br i1 %.not6.i, label %ossl_param_is_empty.exit.thread, label %ecdsa_common_set_ctx_params.exit

ecdsa_common_set_ctx_params.exit:                 ; preds = %14, %12
  %17 = tail call ptr @OSSL_PARAM_locate_const(ptr noundef nonnull %1, ptr noundef nonnull @.str.13) #8
  %.not27 = icmp eq ptr %17, null
  br i1 %.not27, label %26, label %18

18:                                               ; preds = %ecdsa_common_set_ctx_params.exit
  call void @llvm.lifetime.start.p0(i64 50, ptr nonnull %4) #8
  call void @llvm.memset.p0.i64(ptr noundef nonnull align 16 dereferenceable(50) %4, i8 0, i64 50, i1 false)
  call void @llvm.lifetime.start.p0(i64 8, ptr nonnull %5) #8
  store ptr %4, ptr %5, align 8, !tbaa !23
  call void @llvm.lifetime.start.p0(i64 256, ptr nonnull %6) #8
  call void @llvm.memset.p0.i64(ptr noundef nonnull align 16 dereferenceable(256) %6, i8 0, i64 256, i1 false)
  call void @llvm.lifetime.start.p0(i64 8, ptr nonnull %7) #8
  store ptr %6, ptr %7, align 8, !tbaa !23
  %19 = call ptr @OSSL_PARAM_locate_const(ptr noundef nonnull %1, ptr noundef nonnull @.str.16) #8
  %20 = call i32 @OSSL_PARAM_get_utf8_string(ptr noundef nonnull %17, ptr noundef nonnull %5, i64 noundef 50) #8
  %.not28 = icmp eq i32 %20, 0
  br i1 %.not28, label %.critedge, label %21

21:                                               ; preds = %18
  %.not29 = icmp eq ptr %19, null
  br i1 %.not29, label %24, label %22

22:                                               ; preds = %21
  %23 = call i32 @OSSL_PARAM_get_utf8_string(ptr noundef nonnull %19, ptr noundef nonnull %7, i64 noundef 256) #8
  %.not30 = icmp eq i32 %23, 0
  br i1 %.not30, label %.critedge, label %24

24:                                               ; preds = %22, %21
  %25 = call fastcc i32 @ecdsa_setup_md(ptr noundef nonnull %0, ptr noundef nonnull %4, ptr noundef nonnull %6)
  %.not31.not = icmp eq i32 %25, 0
  call void @llvm.lifetime.end.p0(i64 8, ptr nonnull %7) #8
  call void @llvm.lifetime.end.p0(i64 256, ptr nonnull %6) #8
  call void @llvm.lifetime.end.p0(i64 8, ptr nonnull %5) #8
  call void @llvm.lifetime.end.p0(i64 50, ptr nonnull %4) #8
  br i1 %.not31.not, label %ossl_param_is_empty.exit.thread, label %26

26:                                               ; preds = %24, %ecdsa_common_set_ctx_params.exit
  %27 = call ptr @OSSL_PARAM_locate_const(ptr noundef nonnull %1, ptr noundef nonnull @.str.12) #8
  %.not32 = icmp eq ptr %27, null
  br i1 %.not32, label %ossl_param_is_empty.exit.thread, label %28

28:                                               ; preds = %26
  %29 = call i32 @OSSL_PARAM_get_size_t(ptr noundef nonnull %27, ptr noundef nonnull %3) #8
  %.not33 = icmp eq i32 %29, 0
  br i1 %.not33, label %ossl_param_is_empty.exit.thread, label %30

30:                                               ; preds = %28
  %31 = getelementptr inbounds nuw i8, ptr %0, i64 28
  %32 = load i8, ptr %31, align 4
  %33 = and i8 %32, 2
  %.not34 = icmp eq i8 %33, 0
  %.pre = load i64, ptr %3, align 8, !tbaa !20
  br i1 %.not34, label %34, label %37

34:                                               ; preds = %30
  %35 = getelementptr inbounds nuw i8, ptr %0, i64 368
  %36 = load i64, ptr %35, align 8, !tbaa !27
  %.not35 = icmp eq i64 %.pre, %36
  br i1 %.not35, label %37, label %ossl_param_is_empty.exit.thread

37:                                               ; preds = %34, %30
  %38 = getelementptr inbounds nuw i8, ptr %0, i64 368
  store i64 %.pre, ptr %38, align 8, !tbaa !27
  br label %ossl_param_is_empty.exit.thread

.critedge:                                        ; preds = %22, %18
  call void @llvm.lifetime.end.p0(i64 8, ptr nonnull %7) #8
  call void @llvm.lifetime.end.p0(i64 256, ptr nonnull %6) #8
  call void @llvm.lifetime.end.p0(i64 8, ptr nonnull %5) #8
  call void @llvm.lifetime.end.p0(i64 50, ptr nonnull %4) #8
  br label %ossl_param_is_empty.exit.thread

ossl_param_is_empty.exit.thread:                  ; preds = %14, %9, %26, %37, %28, %34, %.critedge, %ossl_param_is_empty.exit, %2, %24
  %.0 = phi i32 [ 0, %24 ], [ 0, %2 ], [ 1, %ossl_param_is_empty.exit ], [ 0, %.critedge ], [ 0, %34 ], [ 0, %28 ], [ 1, %37 ], [ 1, %26 ], [ 1, %9 ], [ 0, %14 ]
  call void @llvm.lifetime.end.p0(i64 8, ptr nonnull %3) #8
  ret i32 %.0
}